; Function Attrs: mustprogress nounwind uwtable
define void @_ZN5draco16DirectBitEncoderD2Ev(ptr noundef nonnull align 8 captures(none) dereferenceable(32) initializes((24, 32)) %0) unnamed_addr #4 align 2 personality ptr @__gxx_personality_v0 {
  %2 = load ptr, ptr %0, align 8, !tbaa !3
  %3 = getelementptr inbounds nuw i8, ptr %0, i64 8
  %4 = load ptr, ptr %3, align 8, !tbaa !9
  %.not.i.i.i = icmp eq ptr %4, %2
  br i1 %.not.i.i.i, label %_ZN5draco16DirectBitEncoder5ClearEv.exit, label %5

5:                                                ; preds = %1
  store ptr %2, ptr %3, align 8, !tbaa !9
  br label %_ZN5draco16DirectBitEncoder5ClearEv.exit

_ZN5draco16DirectBitEncoder5ClearEv.exit:         ; preds = %1, %5
  %6 = getelementptr inbounds nuw i8, ptr %0, i64 24
  store i32 0, ptr %6, align 8, !tbaa !10
  %7 = getelementptr inbounds nuw i8, ptr %0, i64 28
  store i32 0, ptr %7, align 4, !tbaa !16
  %.not.i.i.i1 = icmp eq ptr %2, null
  br i1 %.not.i.i.i1, label %_ZNSt6vectorIjSaIjEED2Ev.exit, label %8

8:                                                ; preds = %_ZN5draco16DirectBitEncoder5ClearEv.exit
  %9 = getelementptr inbounds nuw i8, ptr %0, i64 16
  %10 = load ptr, ptr %9, align 8, !tbaa !17
  %11 = ptrtoint ptr %10 to i64
  %12 = ptrtoint ptr %2 to i64
  %13 = sub i64 %11, %12
  tail call void @_ZdlPvm(ptr noundef nonnull %2, i64 noundef %13) #17
  br label %_ZNSt6vectorIjSaIjEED2Ev.exit

_ZNSt6vectorIjSaIjEED2Ev.exit:                    ; preds = %_ZN5draco16DirectBitEncoder5ClearEv.exit, %8
  ret void
}